; Function Attrs: nounwind uwtable
define internal void @_render_ellipse(ptr noundef %0, ptr noundef %1, ptr noundef %2) #0 {
  %4 = alloca %struct._lv_matrix_t, align 4
  %5 = alloca %struct._lv_fpoint_t, align 4
  call void @llvm.lifetime.start.p0(i64 36, ptr nonnull %4) #9
  %6 = getelementptr inbounds nuw i8, ptr %1, i64 392
  %7 = call ptr @lv_memcpy(ptr noundef nonnull %4, ptr noundef nonnull %6, i64 noundef 36) #9
  %8 = getelementptr inbounds nuw i8, ptr %0, i64 464
  call void @lv_matrix_multiply(ptr noundef nonnull %6, ptr noundef nonnull %8) #9
  %.not = icmp eq ptr %2, null
  br i1 %.not, label %10, label %9

9:                                                ; preds = %3
  call void @lv_matrix_multiply(ptr noundef nonnull %6, ptr noundef nonnull %2) #9
  br label %10

10:                                               ; preds = %9, %3
  %11 = call ptr @lv_vector_path_create(i32 noundef 0) #9
  call void @llvm.lifetime.start.p0(i64 8, ptr nonnull %5) #9
  %12 = getelementptr inbounds nuw i8, ptr %0, i64 576
  %13 = load float, ptr %12, align 8, !tbaa !182
  store float %13, ptr %5, align 4, !tbaa !14
  %14 = getelementptr inbounds nuw i8, ptr %5, i64 4
  %15 = getelementptr inbounds nuw i8, ptr %0, i64 580
  %16 = load float, ptr %15, align 4, !tbaa !183
  store float %16, ptr %14, align 4, !tbaa !18
  %17 = getelementptr inbounds nuw i8, ptr %0, i64 584
  %18 = load float, ptr %17, align 8, !tbaa !184
  %19 = getelementptr inbounds nuw i8, ptr %0, i64 588
  %20 = load float, ptr %19, align 4, !tbaa !185
  call void @lv_vector_path_append_circle(ptr noundef %11, ptr noundef nonnull %5, float noundef %18, float noundef %20) #9
  %21 = getelementptr inbounds nuw i8, ptr %1, i64 8
  %22 = getelementptr inbounds nuw i8, ptr %0, i64 512
  %23 = load ptr, ptr %22, align 8, !tbaa !124
  %.not.i = icmp eq ptr %23, null
  br i1 %.not.i, label %.loopexit31.i, label %24

24:                                               ; preds = %10
  %25 = getelementptr inbounds nuw i8, ptr %0, i64 504
  %.02334.i = load ptr, ptr %25, align 8, !tbaa !4
  %.not2635.i = icmp eq ptr %.02334.i, null
  br i1 %.not2635.i, label %.loopexit31.i, label %.lr.ph.i

.lr.ph.i:                                         ; preds = %24, %34
  %.02336.i = phi ptr [ %.023.i, %34 ], [ %.02334.i, %24 ]
  %26 = getelementptr inbounds nuw i8, ptr %.02336.i, i64 16
  %27 = load ptr, ptr %26, align 8, !tbaa !121
  %.not27.i = icmp eq ptr %27, null
  br i1 %.not27.i, label %34, label %28

28:                                               ; preds = %.lr.ph.i
  %29 = call i32 @strcmp(ptr noundef nonnull dereferenceable(1) %23, ptr noundef nonnull dereferenceable(1) %27) #10
  %30 = icmp eq i32 %29, 0
  br i1 %30, label %31, label %34

31:                                               ; preds = %28
  %32 = getelementptr inbounds nuw i8, ptr %.02336.i, i64 528
  %33 = load ptr, ptr %32, align 8, !tbaa !176
  call void %33(ptr noundef nonnull %.02336.i, ptr noundef nonnull %21, ptr noundef %0, i1 noundef zeroext true) #9
  br label %.loopexit31.i

34:                                               ; preds = %28, %.lr.ph.i
  %.023.i = load ptr, ptr %.02336.i, align 8, !tbaa !4
  %.not26.i = icmp eq ptr %.023.i, null
  br i1 %.not26.i, label %.loopexit31.i, label %.lr.ph.i, !llvm.loop !177

.loopexit31.i:                                    ; preds = %34, %31, %24, %10
  %35 = getelementptr inbounds nuw i8, ptr %0, i64 520
  %36 = load ptr, ptr %35, align 8, !tbaa !126
  %.not28.i = icmp eq ptr %36, null
  br i1 %.not28.i, label %_copy_draw_dsc_from_ref.exit, label %37

37:                                               ; preds = %.loopexit31.i
  %38 = getelementptr inbounds nuw i8, ptr %0, i64 504
  %.037.i = load ptr, ptr %38, align 8, !tbaa !4
  %.not2938.i = icmp eq ptr %.037.i, null
  br i1 %.not2938.i, label %_copy_draw_dsc_from_ref.exit, label %.lr.ph40.i

.lr.ph40.i:                                       ; preds = %37, %47
  %.039.i = phi ptr [ %.0.i, %47 ], [ %.037.i, %37 ]
  %39 = getelementptr inbounds nuw i8, ptr %.039.i, i64 16
  %40 = load ptr, ptr %39, align 8, !tbaa !121
  %.not30.i = icmp eq ptr %40, null
  br i1 %.not30.i, label %47, label %41

41:                                               ; preds = %.lr.ph40.i
  %42 = call i32 @strcmp(ptr noundef nonnull dereferenceable(1) %36, ptr noundef nonnull dereferenceable(1) %40) #10
  %43 = icmp eq i32 %42, 0
  br i1 %43, label %44, label %47

44:                                               ; preds = %41
  %45 = getelementptr inbounds nuw i8, ptr %.039.i, i64 528
  %46 = load ptr, ptr %45, align 8, !tbaa !176
  call void %46(ptr noundef nonnull %.039.i, ptr noundef nonnull %21, ptr noundef %0, i1 noundef zeroext false) #9
  br label %_copy_draw_dsc_from_ref.exit

47:                                               ; preds = %41, %.lr.ph40.i
  %.0.i = load ptr, ptr %.039.i, align 8, !tbaa !4
  %.not29.i = icmp eq ptr %.0.i, null
  br i1 %.not29.i, label %_copy_draw_dsc_from_ref.exit, label %.lr.ph40.i, !llvm.loop !178

_copy_draw_dsc_from_ref.exit:                     ; preds = %47, %.loopexit31.i, %37, %44
  call void @lv_vector_dsc_add_path(ptr noundef %1, ptr noundef %11) #9
  call void @lv_vector_path_delete(ptr noundef %11) #9
  %48 = call ptr @lv_memcpy(ptr noundef nonnull %6, ptr noundef nonnull %4, i64 noundef 36) #9
  call void @llvm.lifetime.end.p0(i64 8, ptr nonnull %5) #9
  call void @llvm.lifetime.end.p0(i64 36, ptr nonnull %4) #9
  ret void
}